; Function Attrs: nounwind uwtable
define void @densmatr_mixDepolarising(ptr noundef readonly byval(%struct.Qureg) align 8 captures(none) %0, i32 noundef %1, double noundef %2) local_unnamed_addr #0 {
  %4 = fcmp oeq double %2, 0.000000e+00
  br i1 %4, label %6, label %5

5:                                                ; preds = %3
  tail call void @densmatr_mixDepolarisingLocal(ptr noundef nonnull byval(%struct.Qureg) align 8 %0, i32 noundef %1, double noundef %2) #15
  br label %6

6:                                                ; preds = %3, %5
  ret void
}